(dp1
S'start_state'
p2
S'reset_arm_tool0'
p3
sS'state_names'
p4
(lp5
S'preempted4'
p6
aS'Global'
p7
aS'preempted0'
p8
aS'preempted1'
p9
aS'preempted2'
p10
aS'preempted3'
p11
aS'aborted3'
p12
aS'aborted1'
p13
aS'aborted0'
p14
aS'block_detection_tool0'
p15
aS'interactive_block_manipulation_tool0'
p16
aS'succeeded0'
p17
ag3
aS'reset_arm_tool1'
p18
aS'aborted2'
p19
aS'pick_and_place_tool0'
p20
as.