ccopy_reg
_reconstructor
p1
(cturtlebot_rcommander_arm_tools.reset_arm_tool
ResetArmState
p2
c__builtin__
object
p3
NtRp4
(dp5
S'self'
p6
(lp7
sS'simple_state'
p8
(dp9
S'goal_cb_str'
p10
S'ros_goal'
p11
sS'input_keys'
p12
(lp13
sS'sb_state'
p14
(lp15
S'reset_arm_tool1'
p16
a(dp17
aI01
asS'action_type'
p18
csimple_arm_actions.msg._ResetArmAction
ResetArmAction
p19
sS'action_name'
p20
S'reset_arm'
p21
ssb.