(lp1
(lp2
S'block_detection_tool0'
p3
aS'preempted0'
p4
aS'preempted'
p5
aa(lp6
g3
aS'aborted0'
p7
aS'aborted'
p8
aa(lp9
S'interactive_block_manipulation_tool0'
p10
aS'preempted1'
p11
ag5
aa(lp12
g10
aS'aborted1'
p13
ag8
aa(lp14
g3
ag10
aS'succeeded'
p15
aa(lp16
S'pick_and_place_tool0'
p17
aS'preempted2'
p18
ag5
aa(lp19
g17
aS'succeeded0'
p20
ag15
aa(lp21
g10
ag17
ag15
aa(lp22
g17
ag10
ag8
aa.