(dp1
S'start_state'
p2
S'block_detection_tool0'
p3
sS'state_names'
p4
(lp5
S'Global'
p6
aS'preempted0'
p7
aS'preempted1'
p8
aS'preempted2'
p9
aS'aborted1'
p10
aS'aborted0'
p11
ag3
aS'interactive_block_manipulation_tool0'
p12
aS'succeeded0'
p13
aS'pick_and_place_tool0'
p14
as.